target datalayout = "e-m:e-p270:32:32-p271:32:32-p272:64:64-i64:64-i128:128-f80:128-n8:16:32:64-S128"
target triple = "x86_64-pc-linux-gnu"

%struct.Vec_Int_t_ = type { i32, i32, ptr }
%struct.Gia_Man_t_ = type { ptr, ptr, i32, i32, i32, i32, ptr, ptr, i32, i32, i32, ptr, ptr, %struct.Vec_Int_t_, %struct.Vec_Int_t_, i32, i32, i32, %struct.Vec_Int_t_, ptr, ptr, ptr, i32, i32, i32, i32, ptr, ptr, ptr, ptr, ptr, i32, i32, ptr, i32, ptr, ptr, ptr, ptr, ptr, ptr, ptr, ptr, ptr, ptr, ptr, ptr, ptr, ptr, ptr, ptr, ptr, ptr, %struct.Vec_Int_t_, %struct.Vec_Int_t_, ptr, ptr, ptr, ptr, ptr, ptr, ptr, ptr, ptr, ptr, ptr, ptr, ptr, ptr, ptr, ptr, ptr, ptr, ptr, ptr, ptr, i32, float, float, ptr, ptr, i32, ptr, ptr, ptr, ptr, ptr, ptr, ptr, ptr, ptr, ptr, ptr, ptr, ptr, ptr, ptr, i64, i64, ptr, ptr, i32, i32, i32, i32, i32, i32, i32, i32, i32, i32, i32, i32, ptr, ptr, ptr, ptr, ptr, ptr, ptr, ptr, i32, i32, i32, ptr, i32, i32, ptr, ptr, ptr, ptr, ptr, ptr, i32, i32, ptr, %struct.Vec_Int_t_, %struct.Vec_Int_t_, %struct.Vec_Int_t_, ptr, ptr, ptr }
%struct.Gia_Obj_t_ = type <{ i64, i32 }>
%struct.Gia_Rpr_t_ = type { i32 }

@.str.2 = private unnamed_addr constant [51 x i8] c"Member %d of choice class %d is a representative.\0A\00", align 1
@.str.3 = private unnamed_addr constant [52 x i8] c"Node %d participates in more than one choice node.\0A\00", align 1
@.str.4 = private unnamed_addr constant [36 x i8] c"Fanin 0 of AND node %d has a repr.\0A\00", align 1
@.str.5 = private unnamed_addr constant [36 x i8] c"Fanin 1 of AND node %d has a repr.\0A\00", align 1
@.str.6 = private unnamed_addr constant [35 x i8] c"Fanin 0 of CO node %d has a repr.\0A\00", align 1

; Function Attrs: nounwind uwtable
define internal i32 @Gia_ObjRepr(ptr noundef %0, i32 noundef %1) #0 {
  %3 = alloca ptr, align 8
  %4 = alloca i32, align 4
  store ptr %0, ptr %3, align 8
  store i32 %1, ptr %4, align 4
  %5 = load ptr, ptr %3, align 8
  %6 = getelementptr inbounds %struct.Gia_Man_t_, ptr %5, i32 0, i32 27
  %7 = load ptr, ptr %6, align 8
  %8 = load i32, ptr %4, align 4
  %9 = sext i32 %8 to i64
  %10 = getelementptr inbounds %struct.Gia_Rpr_t_, ptr %7, i64 %9
  %11 = load i32, ptr %10, align 4
  %12 = and i32 %11, 268435455
  ret i32 %12
}

; Function Attrs: nounwind uwtable
define internal i32 @Gia_ObjIsCo(ptr noundef %0) #0 {
  %2 = alloca ptr, align 8
  store ptr %0, ptr %2, align 8
  %3 = load ptr, ptr %2, align 8
  %4 = load i64, ptr %3, align 4
  %5 = lshr i64 %4, 31
  %6 = and i64 %5, 1
  %7 = trunc i64 %6 to i32
  %8 = icmp ne i32 %7, 0
  br i1 %8, label %9, label %15

9:                                                ; preds = %1
  %10 = load ptr, ptr %2, align 8
  %11 = load i64, ptr %10, align 4
  %12 = and i64 %11, 536870911
  %13 = trunc i64 %12 to i32
  %14 = icmp ne i32 %13, 536870911
  br label %15

15:                                               ; preds = %9, %1
  %16 = phi i1 [ false, %1 ], [ %14, %9 ]
  %17 = zext i1 %16 to i32
  ret i32 %17
}

; Function Attrs: nounwind uwtable
define internal i32 @Gia_ObjFaninId1(ptr noundef %0, i32 noundef %1) #0 {
  %3 = alloca ptr, align 8
  %4 = alloca i32, align 4
  store ptr %0, ptr %3, align 8
  store i32 %1, ptr %4, align 4
  %5 = load i32, ptr %4, align 4
  %6 = load ptr, ptr %3, align 8
  %7 = load i64, ptr %6, align 4
  %8 = lshr i64 %7, 32
  %9 = and i64 %8, 536870911
  %10 = trunc i64 %9 to i32
  %11 = sub nsw i32 %5, %10
  ret i32 %11
}

; Function Attrs: nounwind uwtable
define internal i32 @Gia_ObjHasRepr(ptr noundef %0, i32 noundef %1) #0 {
  %3 = alloca ptr, align 8
  %4 = alloca i32, align 4
  store ptr %0, ptr %3, align 8
  store i32 %1, ptr %4, align 4
  %5 = load ptr, ptr %3, align 8
  %6 = getelementptr inbounds %struct.Gia_Man_t_, ptr %5, i32 0, i32 27
  %7 = load ptr, ptr %6, align 8
  %8 = load i32, ptr %4, align 4
  %9 = sext i32 %8 to i64
  %10 = getelementptr inbounds %struct.Gia_Rpr_t_, ptr %7, i64 %9
  %11 = load i32, ptr %10, align 4
  %12 = and i32 %11, 268435455
  %13 = icmp ne i32 %12, 268435455
  %14 = zext i1 %13 to i32
  ret i32 %14
}

; Function Attrs: nounwind uwtable
define internal i32 @Gia_ObjFaninId0(ptr noundef %0, i32 noundef %1) #0 {
  %3 = alloca ptr, align 8
  %4 = alloca i32, align 4
  store ptr %0, ptr %3, align 8
  store i32 %1, ptr %4, align 4
  %5 = load i32, ptr %4, align 4
  %6 = load ptr, ptr %3, align 8
  %7 = load i64, ptr %6, align 4
  %8 = and i64 %7, 536870911
  %9 = trunc i64 %8 to i32
  %10 = sub nsw i32 %5, %9
  ret i32 %10
}

; Function Attrs: nounwind uwtable
define internal i32 @Gia_ObjIsAnd(ptr noundef %0) #0 {
  %2 = alloca ptr, align 8
  store ptr %0, ptr %2, align 8
  %3 = load ptr, ptr %2, align 8
  %4 = load i64, ptr %3, align 4
  %5 = lshr i64 %4, 31
  %6 = and i64 %5, 1
  %7 = trunc i64 %6 to i32
  %8 = icmp ne i32 %7, 0
  br i1 %8, label %15, label %9

9:                                                ; preds = %1
  %10 = load ptr, ptr %2, align 8
  %11 = load i64, ptr %10, align 4
  %12 = and i64 %11, 536870911
  %13 = trunc i64 %12 to i32
  %14 = icmp ne i32 %13, 536870911
  br label %15

15:                                               ; preds = %9, %1
  %16 = phi i1 [ false, %1 ], [ %14, %9 ]
  %17 = zext i1 %16 to i32
  ret i32 %17
}

; Function Attrs: nounwind uwtable
define internal ptr @Gia_ManObj(ptr noundef %0, i32 noundef %1) #0 {
  %3 = alloca ptr, align 8
  %4 = alloca i32, align 4
  store ptr %0, ptr %3, align 8
  store i32 %1, ptr %4, align 4
  %5 = load ptr, ptr %3, align 8
  %6 = getelementptr inbounds %struct.Gia_Man_t_, ptr %5, i32 0, i32 6
  %7 = load ptr, ptr %6, align 8
  %8 = load i32, ptr %4, align 4
  %9 = sext i32 %8 to i64
  %10 = getelementptr inbounds %struct.Gia_Obj_t_, ptr %7, i64 %9
  ret ptr %10
}

; Function Attrs: nounwind uwtable
define internal i32 @Gia_ObjNext(ptr noundef %0, i32 noundef %1) #0 {
  %3 = alloca ptr, align 8
  %4 = alloca i32, align 4
  store ptr %0, ptr %3, align 8
  store i32 %1, ptr %4, align 4
  %5 = load ptr, ptr %3, align 8
  %6 = getelementptr inbounds %struct.Gia_Man_t_, ptr %5, i32 0, i32 28
  %7 = load ptr, ptr %6, align 8
  %8 = load i32, ptr %4, align 4
  %9 = sext i32 %8 to i64
  %10 = getelementptr inbounds i32, ptr %7, i64 %9
  %11 = load i32, ptr %10, align 4
  ret i32 %11
}

; Function Attrs: nounwind uwtable
define internal i32 @Gia_ObjIsHead(ptr noundef %0, i32 noundef %1) #0 {
  %3 = alloca ptr, align 8
  %4 = alloca i32, align 4
  store ptr %0, ptr %3, align 8
  store i32 %1, ptr %4, align 4
  %5 = load ptr, ptr %3, align 8
  %6 = load i32, ptr %4, align 4
  %7 = call i32 @Gia_ObjRepr(ptr noundef %5, i32 noundef %6)
  %8 = icmp eq i32 %7, 268435455
  br i1 %8, label %9, label %14

9:                                                ; preds = %2
  %10 = load ptr, ptr %3, align 8
  %11 = load i32, ptr %4, align 4
  %12 = call i32 @Gia_ObjNext(ptr noundef %10, i32 noundef %11)
  %13 = icmp sgt i32 %12, 0
  br label %14

14:                                               ; preds = %9, %2
  %15 = phi i1 [ false, %2 ], [ %13, %9 ]
  %16 = zext i1 %15 to i32
  ret i32 %16
}

; Function Attrs: nounwind uwtable
define internal i32 @Gia_ManObjNum(ptr noundef %0) #0 {
  %2 = alloca ptr, align 8
  store ptr %0, ptr %2, align 8
  %3 = load ptr, ptr %2, align 8
  %4 = getelementptr inbounds %struct.Gia_Man_t_, ptr %3, i32 0, i32 4
  %5 = load i32, ptr %4, align 8
  ret i32 %5
}

; Function Attrs: nounwind uwtable
define void @Gia_ManVerifyChoices(ptr noundef %0) #0 {
  %2 = alloca ptr, align 8
  %3 = alloca ptr, align 8
  %4 = alloca i32, align 4
  %5 = alloca i32, align 4
  %6 = alloca i32, align 4
  %7 = alloca i32, align 4
  store ptr %0, ptr %2, align 8
  store i32 0, ptr %7, align 4
  %8 = load ptr, ptr %2, align 8
  call void @Gia_ManCleanMark0(ptr noundef %8)
  store i32 1, ptr %5, align 4
  br label %9

9:                                                ; preds = %61, %1
  %10 = load i32, ptr %5, align 4
  %11 = load ptr, ptr %2, align 8
  %12 = call i32 @Gia_ManObjNum(ptr noundef %11)
  %13 = icmp slt i32 %10, %12
  br i1 %13, label %14, label %64

14:                                               ; preds = %9
  %15 = load ptr, ptr %2, align 8
  %16 = load i32, ptr %5, align 4
  %17 = call i32 @Gia_ObjIsHead(ptr noundef %15, i32 noundef %16)
  %18 = icmp ne i32 %17, 0
  br i1 %18, label %20, label %19

19:                                               ; preds = %14
  br label %60

20:                                               ; preds = %14
  %21 = load ptr, ptr %2, align 8
  %22 = load i32, ptr %5, align 4
  %23 = call i32 @Gia_ObjNext(ptr noundef %21, i32 noundef %22)
  store i32 %23, ptr %6, align 4
  br label %24

24:                                               ; preds = %55, %20
  %25 = load i32, ptr %6, align 4
  %26 = icmp sgt i32 %25, 0
  br i1 %26, label %27, label %59

27:                                               ; preds = %24
  %28 = load ptr, ptr %2, align 8
  %29 = load i32, ptr %6, align 4
  %30 = call i32 @Gia_ObjIsHead(ptr noundef %28, i32 noundef %29)
  %31 = icmp ne i32 %30, 0
  br i1 %31, label %32, label %36

32:                                               ; preds = %27
  %33 = load i32, ptr %6, align 4
  %34 = load i32, ptr %5, align 4
  %35 = call i32 (ptr, ...) @printf(ptr noundef @.str.2, i32 noundef %33, i32 noundef %34)
  store i32 1, ptr %7, align 4
  br label %36

36:                                               ; preds = %32, %27
  %37 = load ptr, ptr %2, align 8
  %38 = load i32, ptr %6, align 4
  %39 = call ptr @Gia_ManObj(ptr noundef %37, i32 noundef %38)
  %40 = load i64, ptr %39, align 4
  %41 = lshr i64 %40, 30
  %42 = and i64 %41, 1
  %43 = trunc i64 %42 to i32
  %44 = icmp eq i32 %43, 1
  br i1 %44, label %45, label %48

45:                                               ; preds = %36
  %46 = load i32, ptr %6, align 4
  %47 = call i32 (ptr, ...) @printf(ptr noundef @.str.3, i32 noundef %46)
  store i32 1, ptr %7, align 4
  br label %48

48:                                               ; preds = %45, %36
  %49 = load ptr, ptr %2, align 8
  %50 = load i32, ptr %6, align 4
  %51 = call ptr @Gia_ManObj(ptr noundef %49, i32 noundef %50)
  %52 = load i64, ptr %51, align 4
  %53 = and i64 %52, -1073741825
  %54 = or i64 %53, 1073741824
  store i64 %54, ptr %51, align 4
  br label %55

55:                                               ; preds = %48
  %56 = load ptr, ptr %2, align 8
  %57 = load i32, ptr %6, align 4
  %58 = call i32 @Gia_ObjNext(ptr noundef %56, i32 noundef %57)
  store i32 %58, ptr %6, align 4
  br label %24, !llvm.loop !19

59:                                               ; preds = %24
  br label %60

60:                                               ; preds = %59, %19
  br label %61

61:                                               ; preds = %60
  %62 = load i32, ptr %5, align 4
  %63 = add nsw i32 %62, 1
  store i32 %63, ptr %5, align 4
  br label %9, !llvm.loop !20

64:                                               ; preds = %9
  %65 = load ptr, ptr %2, align 8
  call void @Gia_ManCleanMark0(ptr noundef %65)
  store i32 0, ptr %4, align 4
  br label %66

66:                                               ; preds = %121, %64
  %67 = load i32, ptr %4, align 4
  %68 = load ptr, ptr %2, align 8
  %69 = getelementptr inbounds %struct.Gia_Man_t_, ptr %68, i32 0, i32 4
  %70 = load i32, ptr %69, align 8
  %71 = icmp slt i32 %67, %70
  br i1 %71, label %72, label %77

72:                                               ; preds = %66
  %73 = load ptr, ptr %2, align 8
  %74 = load i32, ptr %4, align 4
  %75 = call ptr @Gia_ManObj(ptr noundef %73, i32 noundef %74)
  store ptr %75, ptr %3, align 8
  %76 = icmp ne ptr %75, null
  br label %77

77:                                               ; preds = %72, %66
  %78 = phi i1 [ false, %66 ], [ %76, %72 ]
  br i1 %78, label %79, label %124

79:                                               ; preds = %77
  %80 = load ptr, ptr %3, align 8
  %81 = call i32 @Gia_ObjIsAnd(ptr noundef %80)
  %82 = icmp ne i32 %81, 0
  br i1 %82, label %83, label %104

83:                                               ; preds = %79
  %84 = load ptr, ptr %2, align 8
  %85 = load ptr, ptr %3, align 8
  %86 = load i32, ptr %4, align 4
  %87 = call i32 @Gia_ObjFaninId0(ptr noundef %85, i32 noundef %86)
  %88 = call i32 @Gia_ObjHasRepr(ptr noundef %84, i32 noundef %87)
  %89 = icmp ne i32 %88, 0
  br i1 %89, label %90, label %93

90:                                               ; preds = %83
  %91 = load i32, ptr %4, align 4
  %92 = call i32 (ptr, ...) @printf(ptr noundef @.str.4, i32 noundef %91)
  store i32 1, ptr %7, align 4
  br label %93

93:                                               ; preds = %90, %83
  %94 = load ptr, ptr %2, align 8
  %95 = load ptr, ptr %3, align 8
  %96 = load i32, ptr %4, align 4
  %97 = call i32 @Gia_ObjFaninId1(ptr noundef %95, i32 noundef %96)
  %98 = call i32 @Gia_ObjHasRepr(ptr noundef %94, i32 noundef %97)
  %99 = icmp ne i32 %98, 0
  br i1 %99, label %100, label %103

100:                                              ; preds = %93
  %101 = load i32, ptr %4, align 4
  %102 = call i32 (ptr, ...) @printf(ptr noundef @.str.5, i32 noundef %101)
  store i32 1, ptr %7, align 4
  br label %103

103:                                              ; preds = %100, %93
  br label %120

104:                                              ; preds = %79
  %105 = load ptr, ptr %3, align 8
  %106 = call i32 @Gia_ObjIsCo(ptr noundef %105)
  %107 = icmp ne i32 %106, 0
  br i1 %107, label %108, label %119

108:                                              ; preds = %104
  %109 = load ptr, ptr %2, align 8
  %110 = load ptr, ptr %3, align 8
  %111 = load i32, ptr %4, align 4
  %112 = call i32 @Gia_ObjFaninId0(ptr noundef %110, i32 noundef %111)
  %113 = call i32 @Gia_ObjHasRepr(ptr noundef %109, i32 noundef %112)
  %114 = icmp ne i32 %113, 0
  br i1 %114, label %115, label %118

115:                                              ; preds = %108
  %116 = load i32, ptr %4, align 4
  %117 = call i32 (ptr, ...) @printf(ptr noundef @.str.6, i32 noundef %116)
  store i32 1, ptr %7, align 4
  br label %118

118:                                              ; preds = %115, %108
  br label %119

119:                                              ; preds = %118, %104
  br label %120

120:                                              ; preds = %119, %103
  br label %121

121:                                              ; preds = %120
  %122 = load i32, ptr %4, align 4
  %123 = add nsw i32 %122, 1
  store i32 %123, ptr %4, align 4
  br label %66, !llvm.loop !21

124:                                              ; preds = %77
  ret void
}