; Function Attrs: nounwind uwtable
define void @Gia_ManVerifyChoices(ptr noundef %0) local_unnamed_addr #0 {
  tail call void @Gia_ManCleanMark0(ptr noundef %0) #11
  %2 = getelementptr i8, ptr %0, i64 24
  %.val5275 = load i32, ptr %2, align 8
  %3 = icmp sgt i32 %.val5275, 1
  br i1 %3, label %.lr.ph78, label %._crit_edge

.lr.ph78:                                         ; preds = %1
  %4 = getelementptr i8, ptr %0, i64 192
  %5 = getelementptr i8, ptr %0, i64 200
  %6 = getelementptr i8, ptr %0, i64 32
  br label %7

7:                                                ; preds = %.lr.ph78, %Gia_ObjIsHead.exit.thread
  %.val5289 = phi i32 [ %.val5275, %.lr.ph78 ], [ %.val52, %Gia_ObjIsHead.exit.thread ]
  %indvars.iv = phi i64 [ 1, %.lr.ph78 ], [ %indvars.iv.next, %Gia_ObjIsHead.exit.thread ]
  %.val.i = load ptr, ptr %4, align 8
  %8 = getelementptr inbounds nuw %struct.Gia_Rpr_t_, ptr %.val.i, i64 %indvars.iv
  %9 = load i32, ptr %8, align 4
  %10 = and i32 %9, 268435455
  %11 = icmp eq i32 %10, 268435455
  br i1 %11, label %Gia_ObjIsHead.exit, label %Gia_ObjIsHead.exit.thread

Gia_ObjIsHead.exit:                               ; preds = %7
  %.val3.i = load ptr, ptr %5, align 8
  %12 = getelementptr inbounds nuw i32, ptr %.val3.i, i64 %indvars.iv
  %13 = load i32, ptr %12, align 4
  %14 = icmp slt i32 %13, 1
  br i1 %14, label %Gia_ObjIsHead.exit.thread, label %.lr.ph.preheader

.lr.ph.preheader:                                 ; preds = %Gia_ObjIsHead.exit
  %15 = trunc nuw nsw i64 %indvars.iv to i32
  br label %.lr.ph

.lr.ph:                                           ; preds = %.lr.ph.preheader, %31
  %.val3.i64 = phi ptr [ %.val54, %31 ], [ %.val3.i, %.lr.ph.preheader ]
  %.074 = phi i32 [ %.0, %31 ], [ %13, %.lr.ph.preheader ]
  %.val.i63 = load ptr, ptr %4, align 8
  %16 = zext nneg i32 %.074 to i64
  %17 = getelementptr inbounds nuw %struct.Gia_Rpr_t_, ptr %.val.i63, i64 %16
  %18 = load i32, ptr %17, align 4
  %19 = and i32 %18, 268435455
  %20 = icmp eq i32 %19, 268435455
  br i1 %20, label %Gia_ObjIsHead.exit65, label %Gia_ObjIsHead.exit65.thread

Gia_ObjIsHead.exit65:                             ; preds = %.lr.ph
  %21 = getelementptr inbounds nuw i32, ptr %.val3.i64, i64 %16
  %22 = load i32, ptr %21, align 4
  %23 = icmp slt i32 %22, 1
  br i1 %23, label %Gia_ObjIsHead.exit65.thread, label %24

24:                                               ; preds = %Gia_ObjIsHead.exit65
  %25 = tail call i32 (ptr, ...) @printf(ptr noundef nonnull dereferenceable(1) @.str.2, i32 noundef %.074, i32 noundef %15)
  br label %Gia_ObjIsHead.exit65.thread

Gia_ObjIsHead.exit65.thread:                      ; preds = %.lr.ph, %24, %Gia_ObjIsHead.exit65
  %.val = load ptr, ptr %6, align 8
  %26 = getelementptr inbounds nuw %struct.Gia_Obj_t_, ptr %.val, i64 %16
  %27 = load i64, ptr %26, align 4
  %28 = and i64 %27, 1073741824
  %.not49 = icmp eq i64 %28, 0
  br i1 %.not49, label %31, label %29

29:                                               ; preds = %Gia_ObjIsHead.exit65.thread
  %30 = tail call i32 (ptr, ...) @printf(ptr noundef nonnull dereferenceable(1) @.str.3, i32 noundef %.074)
  %.val50.pre = load ptr, ptr %6, align 8
  %.phi.trans.insert = getelementptr inbounds nuw %struct.Gia_Obj_t_, ptr %.val50.pre, i64 %16
  %.pre = load i64, ptr %.phi.trans.insert, align 4
  br label %31

31:                                               ; preds = %29, %Gia_ObjIsHead.exit65.thread
  %32 = phi i64 [ %.pre, %29 ], [ %27, %Gia_ObjIsHead.exit65.thread ]
  %.val50 = phi ptr [ %.val50.pre, %29 ], [ %.val, %Gia_ObjIsHead.exit65.thread ]
  %33 = getelementptr inbounds nuw %struct.Gia_Obj_t_, ptr %.val50, i64 %16
  %34 = or i64 %32, 1073741824
  store i64 %34, ptr %33, align 4
  %.val54 = load ptr, ptr %5, align 8
  %35 = getelementptr inbounds nuw i32, ptr %.val54, i64 %16
  %.0 = load i32, ptr %35, align 4
  %36 = icmp sgt i32 %.0, 0
  br i1 %36, label %.lr.ph, label %Gia_ObjIsHead.exit.thread.loopexit, !llvm.loop !19

Gia_ObjIsHead.exit.thread.loopexit:               ; preds = %31
  %.val52.pre = load i32, ptr %2, align 8
  br label %Gia_ObjIsHead.exit.thread

Gia_ObjIsHead.exit.thread:                        ; preds = %Gia_ObjIsHead.exit.thread.loopexit, %7, %Gia_ObjIsHead.exit
  %.val52 = phi i32 [ %.val52.pre, %Gia_ObjIsHead.exit.thread.loopexit ], [ %.val5289, %7 ], [ %.val5289, %Gia_ObjIsHead.exit ]
  %indvars.iv.next = add nuw nsw i64 %indvars.iv, 1
  %37 = sext i32 %.val52 to i64
  %38 = icmp slt i64 %indvars.iv.next, %37
  br i1 %38, label %7, label %._crit_edge, !llvm.loop !20

._crit_edge:                                      ; preds = %Gia_ObjIsHead.exit.thread, %1
  tail call void @Gia_ManCleanMark0(ptr noundef nonnull %0) #11
  %39 = getelementptr i8, ptr %0, i64 32
  %40 = load i32, ptr %2, align 8
  %41 = icmp sgt i32 %40, 0
  br i1 %41, label %.lr.ph81, label %.critedge

.lr.ph81:                                         ; preds = %._crit_edge
  %42 = getelementptr i8, ptr %0, i64 192
  br label %43

43:                                               ; preds = %.lr.ph81, %80
  %indvars.iv84 = phi i64 [ 0, %.lr.ph81 ], [ %indvars.iv.next85, %80 ]
  %.val51 = load ptr, ptr %39, align 8
  %44 = getelementptr inbounds nuw %struct.Gia_Obj_t_, ptr %.val51, i64 %indvars.iv84
  %.not = icmp eq ptr %.val51, null
  br i1 %.not, label %.critedge, label %45

45:                                               ; preds = %43
  %.val55 = load i64, ptr %44, align 4
  %46 = and i64 %.val55, 2147483648
  %.not.i = icmp eq i64 %46, 0
  %47 = and i64 %.val55, 536870911
  %48 = icmp ne i64 %47, 536870911
  %narrow.i = and i1 %.not.i, %48
  br i1 %narrow.i, label %49, label %69

49:                                               ; preds = %45
  %50 = and i64 %.val55, 536870911
  %51 = trunc nuw nsw i64 %indvars.iv84 to i32
  %52 = sub nsw i64 %indvars.iv84, %50
  %.val58 = load ptr, ptr %42, align 8
  %sext93 = shl i64 %52, 32
  %53 = ashr exact i64 %sext93, 30
  %54 = getelementptr inbounds i8, ptr %.val58, i64 %53
  %55 = load i32, ptr %54, align 4
  %56 = and i32 %55, 268435455
  %.not70 = icmp eq i32 %56, 268435455
  br i1 %.not70, label %59, label %57

57:                                               ; preds = %49
  %58 = tail call i32 (ptr, ...) @printf(ptr noundef nonnull dereferenceable(1) @.str.4, i32 noundef %51)
  %.val61.pre = load i64, ptr %44, align 4
  %.val59.pre = load ptr, ptr %42, align 8
  br label %59

59:                                               ; preds = %57, %49
  %.val59 = phi ptr [ %.val59.pre, %57 ], [ %.val58, %49 ]
  %.val61 = phi i64 [ %.val61.pre, %57 ], [ %.val55, %49 ]
  %60 = lshr i64 %.val61, 32
  %61 = and i64 %60, 536870911
  %62 = sub nsw i64 %indvars.iv84, %61
  %sext94 = shl i64 %62, 32
  %63 = ashr exact i64 %sext94, 30
  %64 = getelementptr inbounds i8, ptr %.val59, i64 %63
  %65 = load i32, ptr %64, align 4
  %66 = and i32 %65, 268435455
  %.not71 = icmp eq i32 %66, 268435455
  br i1 %.not71, label %80, label %67

67:                                               ; preds = %59
  %68 = tail call i32 (ptr, ...) @printf(ptr noundef nonnull dereferenceable(1) @.str.5, i32 noundef %51)
  br label %80

69:                                               ; preds = %45
  %.not.i66 = icmp ne i64 %46, 0
  %narrow.i67 = and i1 %.not.i66, %48
  br i1 %narrow.i67, label %70, label %80

70:                                               ; preds = %69
  %71 = and i64 %.val55, 536870911
  %72 = sub nsw i64 %indvars.iv84, %71
  %.val60 = load ptr, ptr %42, align 8
  %sext = shl i64 %72, 32
  %73 = ashr exact i64 %sext, 30
  %74 = getelementptr inbounds i8, ptr %.val60, i64 %73
  %75 = load i32, ptr %74, align 4
  %76 = and i32 %75, 268435455
  %.not72 = icmp eq i32 %76, 268435455
  br i1 %.not72, label %80, label %77

77:                                               ; preds = %70
  %78 = trunc nuw nsw i64 %indvars.iv84 to i32
  %79 = tail call i32 (ptr, ...) @printf(ptr noundef nonnull dereferenceable(1) @.str.6, i32 noundef %78)
  br label %80

80:                                               ; preds = %67, %59, %70, %77, %69
  %indvars.iv.next85 = add nuw nsw i64 %indvars.iv84, 1
  %81 = load i32, ptr %2, align 8
  %82 = sext i32 %81 to i64
  %83 = icmp slt i64 %indvars.iv.next85, %82
  br i1 %83, label %43, label %.critedge, !llvm.loop !21

.critedge:                                        ; preds = %43, %80, %._crit_edge
  ret void
}